; Function Attrs: nounwind uwtable
define internal noundef i32 @prte_ras_slurm_finalize() #0 {
  %1 = load i8, ptr getelementptr inbounds nuw (i8, ptr @prte_mca_ras_slurm_component, i64 228), align 4, !tbaa !3, !range !12, !noundef !13
  %2 = trunc nuw i8 %1 to i1
  br i1 %2, label %3, label %53

3:                                                ; preds = %0
  %4 = tail call i32 @event_del(ptr noundef nonnull @recv_ev) #20
  %5 = load volatile i64, ptr getelementptr inbounds nuw (i8, ptr @jobs, i64 264), align 8, !tbaa !54
  %6 = icmp eq i64 %5, 0
  br i1 %6, label %._crit_edge, label %.lr.ph

.lr.ph:                                           ; preds = %3, %39
  %7 = load volatile i64, ptr getelementptr inbounds nuw (i8, ptr @jobs, i64 264), align 8, !tbaa !54
  %8 = add i64 %7, -1
  store volatile i64 %8, ptr getelementptr inbounds nuw (i8, ptr @jobs, i64 264), align 8, !tbaa !54
  %9 = load ptr, ptr getelementptr inbounds nuw (i8, ptr @jobs, i64 240), align 8, !tbaa !80
  %10 = getelementptr inbounds nuw i8, ptr %9, i64 128
  %11 = load volatile ptr, ptr %10, align 8, !tbaa !52
  %12 = getelementptr inbounds nuw i8, ptr %9, i64 120
  %13 = load volatile ptr, ptr %12, align 8, !tbaa !53
  %14 = getelementptr inbounds nuw i8, ptr %13, i64 128
  store volatile ptr %11, ptr %14, align 8, !tbaa !52
  %15 = load volatile ptr, ptr %12, align 8, !tbaa !53
  store ptr %15, ptr getelementptr inbounds nuw (i8, ptr @jobs, i64 240), align 8, !tbaa !80
  %16 = tail call i32 @pthread_mutex_lock(ptr noundef nonnull %9) #20
  %17 = icmp eq i32 %16, 35
  br i1 %17, label %18, label %pmix_obj_update.exit

18:                                               ; preds = %.lr.ph
  %19 = tail call ptr @__errno_location() #22
  store i32 35, ptr %19, align 4, !tbaa !30
  tail call void @perror(ptr noundef nonnull @.str.2) #24
  tail call void @abort() #25
  unreachable

pmix_obj_update.exit:                             ; preds = %.lr.ph
  %20 = getelementptr inbounds nuw i8, ptr %9, i64 48
  %21 = load i32, ptr %20, align 8, !tbaa !46
  %22 = add nsw i32 %21, -1
  store i32 %22, ptr %20, align 8, !tbaa !46
  %23 = tail call i32 @pthread_mutex_unlock(ptr noundef nonnull %9) #20
  %24 = icmp eq i32 %22, 0
  br i1 %24, label %25, label %39

25:                                               ; preds = %pmix_obj_update.exit
  %26 = getelementptr inbounds nuw i8, ptr %9, i64 40
  %27 = load ptr, ptr %26, align 8, !tbaa !45
  %28 = getelementptr inbounds nuw i8, ptr %27, i64 48
  %29 = load ptr, ptr %28, align 8, !tbaa !81
  %30 = load ptr, ptr %29, align 8, !tbaa !48
  %.not6.i = icmp eq ptr %30, null
  br i1 %.not6.i, label %pmix_obj_run_destructors.exit, label %.lr.ph.i

.lr.ph.i:                                         ; preds = %25, %.lr.ph.i
  %31 = phi ptr [ %33, %.lr.ph.i ], [ %30, %25 ]
  %.07.i = phi ptr [ %32, %.lr.ph.i ], [ %29, %25 ]
  tail call void %31(ptr noundef nonnull %9) #20
  %32 = getelementptr inbounds nuw i8, ptr %.07.i, i64 8
  %33 = load ptr, ptr %32, align 8, !tbaa !48
  %.not.i = icmp eq ptr %33, null
  br i1 %.not.i, label %pmix_obj_run_destructors.exit, label %.lr.ph.i, !llvm.loop !82

pmix_obj_run_destructors.exit:                    ; preds = %.lr.ph.i, %25
  %34 = getelementptr inbounds nuw i8, ptr %9, i64 96
  %35 = load ptr, ptr %34, align 8, !tbaa !83
  %.not7 = icmp eq ptr %35, null
  br i1 %.not7, label %38, label %36

36:                                               ; preds = %pmix_obj_run_destructors.exit
  %37 = getelementptr inbounds nuw i8, ptr %9, i64 56
  tail call void %35(ptr noundef nonnull %37, ptr noundef nonnull %9) #20
  br label %39

38:                                               ; preds = %pmix_obj_run_destructors.exit
  tail call void @free(ptr noundef nonnull %9) #20
  br label %39

39:                                               ; preds = %36, %38, %pmix_obj_update.exit
  %40 = load volatile i64, ptr getelementptr inbounds nuw (i8, ptr @jobs, i64 264), align 8, !tbaa !54
  %41 = icmp eq i64 %40, 0
  br i1 %41, label %._crit_edge, label %.lr.ph, !llvm.loop !84

._crit_edge:                                      ; preds = %39, %3
  %42 = load ptr, ptr getelementptr inbounds nuw (i8, ptr @jobs, i64 40), align 8, !tbaa !45
  %43 = getelementptr inbounds nuw i8, ptr %42, i64 48
  %44 = load ptr, ptr %43, align 8, !tbaa !81
  %45 = load ptr, ptr %44, align 8, !tbaa !48
  %.not6.i8 = icmp eq ptr %45, null
  br i1 %.not6.i8, label %pmix_obj_run_destructors.exit12, label %.lr.ph.i9

.lr.ph.i9:                                        ; preds = %._crit_edge, %.lr.ph.i9
  %46 = phi ptr [ %48, %.lr.ph.i9 ], [ %45, %._crit_edge ]
  %.07.i10 = phi ptr [ %47, %.lr.ph.i9 ], [ %44, %._crit_edge ]
  tail call void %46(ptr noundef nonnull @jobs) #20
  %47 = getelementptr inbounds nuw i8, ptr %.07.i10, i64 8
  %48 = load ptr, ptr %47, align 8, !tbaa !48
  %.not.i11 = icmp eq ptr %48, null
  br i1 %.not.i11, label %pmix_obj_run_destructors.exit12, label %.lr.ph.i9, !llvm.loop !82

pmix_obj_run_destructors.exit12:                  ; preds = %.lr.ph.i9, %._crit_edge
  %49 = load i32, ptr @socket_fd, align 4, !tbaa !30
  %50 = tail call i32 @shutdown(i32 noundef %49, i32 noundef 2) #20
  %51 = load i32, ptr @socket_fd, align 4, !tbaa !30
  %52 = tail call i32 @close(i32 noundef %51) #20
  br label %53

53:                                               ; preds = %pmix_obj_run_destructors.exit12, %0
  ret i32 0
}